target datalayout = "e-m:e-p270:32:32-p271:32:32-p272:64:64-i64:64-i128:128-f80:128-n8:16:32:64-S128"
target triple = "x86_64-pc-linux-gnu"

%union.pthread_attr_t = type { i64, [48 x i8] }
%struct.conmgr_callback_args_t = type { ptr, i32 }

@.str.5 = private unnamed_addr constant [22 x i8] c"pthread_attr_init: %m\00", align 1
@.str.6 = private unnamed_addr constant [26 x i8] c"pthread_attr_setscope: %m\00", align 1
@.str.7 = private unnamed_addr constant [30 x i8] c"pthread_attr_setstacksize: %m\00", align 1
@.str.8 = private unnamed_addr constant [28 x i8] c"%s: pthread_create error %m\00", align 1
@.str.9 = private unnamed_addr constant [55 x i8] c"pthread_attr_destroy failed, possible memory leak!: %m\00", align 1
@.str.36 = private unnamed_addr constant [11 x i8] c"_on_sighup\00", align 1
@.str.47 = private unnamed_addr constant [37 x i8] c"Reconfigure signal (SIGHUP) received\00", align 1
@.str.48 = private unnamed_addr constant [35 x i8] c"%s: pthread_attr_setdetachstate %m\00", align 1

; Function Attrs: nounwind uwtable
define internal void @_on_sighup(ptr %0, i32 %1, ptr noundef %2) #0 {
  %4 = alloca %struct.conmgr_callback_args_t, align 8
  %5 = alloca ptr, align 8
  %6 = alloca i64, align 8
  %7 = alloca %union.pthread_attr_t, align 8
  %8 = alloca i32, align 4
  %9 = alloca i32, align 4
  %10 = alloca i32, align 4
  %11 = getelementptr inbounds nuw { ptr, i32 }, ptr %4, i32 0, i32 0
  store ptr %0, ptr %11, align 8
  %12 = getelementptr inbounds nuw { ptr, i32 }, ptr %4, i32 0, i32 1
  store i32 %1, ptr %12, align 8
  store ptr %2, ptr %5, align 8
  br label %13

13:                                               ; preds = %3
  br label %14

14:                                               ; preds = %13
  %15 = call i32 @get_log_level()
  %16 = icmp sge i32 %15, 3
  br i1 %16, label %17, label %18

17:                                               ; preds = %14
  call void (i32, ptr, ...) @log_var(i32 noundef 3, ptr noundef @.str.47)
  br label %18

18:                                               ; preds = %17, %14
  br label %19

19:                                               ; preds = %18
  br label %20

20:                                               ; preds = %19
  br label %21

21:                                               ; preds = %20
  call void @llvm.lifetime.start.p0(i64 8, ptr %6) #10
  call void @llvm.lifetime.start.p0(i64 56, ptr %7) #10
  call void @llvm.lifetime.start.p0(i64 4, ptr %8) #10
  br label %22

22:                                               ; preds = %21
  call void @llvm.lifetime.start.p0(i64 4, ptr %9) #10
  %23 = call i32 @pthread_attr_init(ptr noundef %7) #10
  store i32 %23, ptr %9, align 4
  %24 = load i32, ptr %9, align 4
  %25 = icmp ne i32 %24, 0
  br i1 %25, label %26, label %29

26:                                               ; preds = %22
  %27 = load i32, ptr %9, align 4
  %28 = call ptr @__errno_location() #13
  store i32 %27, ptr %28, align 4
  call void (ptr, ...) @fatal(ptr noundef @.str.5) #12
  unreachable

29:                                               ; preds = %22
  %30 = call i32 @pthread_attr_setscope(ptr noundef %7, i32 noundef 0) #10
  store i32 %30, ptr %9, align 4
  %31 = load i32, ptr %9, align 4
  %32 = icmp ne i32 %31, 0
  br i1 %32, label %33, label %37

33:                                               ; preds = %29
  %34 = load i32, ptr %9, align 4
  %35 = call ptr @__errno_location() #13
  store i32 %34, ptr %35, align 4
  %36 = call i32 (ptr, ...) @error(ptr noundef @.str.6)
  br label %37

37:                                               ; preds = %33, %29
  %38 = call i32 @pthread_attr_setstacksize(ptr noundef %7, i64 noundef 1048576) #10
  store i32 %38, ptr %9, align 4
  %39 = load i32, ptr %9, align 4
  %40 = icmp ne i32 %39, 0
  br i1 %40, label %41, label %45

41:                                               ; preds = %37
  %42 = load i32, ptr %9, align 4
  %43 = call ptr @__errno_location() #13
  store i32 %42, ptr %43, align 4
  %44 = call i32 (ptr, ...) @error(ptr noundef @.str.7)
  br label %45

45:                                               ; preds = %41, %37
  call void @llvm.lifetime.end.p0(i64 4, ptr %9) #10
  br label %46

46:                                               ; preds = %45
  br label %47

47:                                               ; preds = %46
  %48 = call i32 @pthread_attr_setdetachstate(ptr noundef %7, i32 noundef 1) #10
  store i32 %48, ptr %8, align 4
  %49 = load i32, ptr %8, align 4
  %50 = icmp ne i32 %49, 0
  br i1 %50, label %51, label %54

51:                                               ; preds = %47
  %52 = load i32, ptr %8, align 4
  %53 = call ptr @__errno_location() #13
  store i32 %52, ptr %53, align 4
  call void (ptr, ...) @fatal(ptr noundef @.str.48, ptr noundef @.str.36) #12
  unreachable

54:                                               ; preds = %47
  %55 = call i32 @pthread_create(ptr noundef %6, ptr noundef %7, ptr noundef @reconfig, ptr noundef null) #10
  store i32 %55, ptr %8, align 4
  %56 = load i32, ptr %8, align 4
  %57 = icmp ne i32 %56, 0
  br i1 %57, label %58, label %61

58:                                               ; preds = %54
  %59 = load i32, ptr %8, align 4
  %60 = call ptr @__errno_location() #13
  store i32 %59, ptr %60, align 4
  call void (ptr, ...) @fatal(ptr noundef @.str.8, ptr noundef @.str.36) #12
  unreachable

61:                                               ; preds = %54
  br label %62

62:                                               ; preds = %61
  call void @llvm.lifetime.start.p0(i64 4, ptr %10) #10
  %63 = call i32 @pthread_attr_destroy(ptr noundef %7) #10
  store i32 %63, ptr %10, align 4
  %64 = load i32, ptr %10, align 4
  %65 = icmp ne i32 %64, 0
  br i1 %65, label %66, label %70

66:                                               ; preds = %62
  %67 = load i32, ptr %10, align 4
  %68 = call ptr @__errno_location() #13
  store i32 %67, ptr %68, align 4
  %69 = call i32 (ptr, ...) @error(ptr noundef @.str.9)
  br label %70

70:                                               ; preds = %66, %62
  call void @llvm.lifetime.end.p0(i64 4, ptr %10) #10
  br label %71

71:                                               ; preds = %70
  br label %72

72:                                               ; preds = %71
  call void @llvm.lifetime.end.p0(i64 4, ptr %8) #10
  call void @llvm.lifetime.end.p0(i64 56, ptr %7) #10
  call void @llvm.lifetime.end.p0(i64 8, ptr %6) #10
  br label %73

73:                                               ; preds = %72
  ret void
}